target datalayout = "e-m:e-p270:32:32-p271:32:32-p272:64:64-i64:64-i128:128-f80:128-n8:16:32:64-S128"
target triple = "x86_64-pc-linux-gnu"

%"class.std::vector.3" = type { %"struct.std::_Vector_base.4" }
%"struct.std::_Vector_base.4" = type { %"struct.std::_Vector_base<int, std::allocator<int>>::_Vector_impl" }
%"struct.std::_Vector_base<int, std::allocator<int>>::_Vector_impl" = type { %"struct.std::_Vector_base<int, std::allocator<int>>::_Vector_impl_data" }
%"struct.std::_Vector_base<int, std::allocator<int>>::_Vector_impl_data" = type { ptr, ptr, ptr }
%struct.gmx_ana_index_t = type { i32, ptr, i32 }
%"class.gmx::RangePartitioning" = type { %"class.std::vector.3" }

; Function Attrs: mustprogress nounwind uwtable
define linkonce_odr void @_ZNSt15__new_allocatorIiE10deallocateEPim(ptr noundef nonnull align 1 dereferenceable(1) %0, ptr noundef %1, i64 noundef %2) #1 comdat align 2 {
  %4 = alloca ptr, align 8
  %5 = alloca ptr, align 8
  %6 = alloca i64, align 8
  store ptr %0, ptr %4, align 8, !tbaa !75
  store ptr %1, ptr %5, align 8, !tbaa !77
  store i64 %2, ptr %6, align 8, !tbaa !19
  %7 = load ptr, ptr %5, align 8, !tbaa !77
  %8 = load i64, ptr %6, align 8, !tbaa !19
  %9 = mul i64 %8, 4
  call void @_ZdlPvm(ptr noundef %7, i64 noundef %9) #23
  ret void
}

; Function Attrs: mustprogress uwtable
define linkonce_odr void @_ZNSt16allocator_traitsISaIiEE10deallocateERS0_Pim(ptr noundef nonnull align 1 dereferenceable(1) %0, ptr noundef %1, i64 noundef %2) #0 comdat align 2 {
  %4 = alloca ptr, align 8
  %5 = alloca ptr, align 8
  %6 = alloca i64, align 8
  store ptr %0, ptr %4, align 8, !tbaa !71
  store ptr %1, ptr %5, align 8, !tbaa !77
  store i64 %2, ptr %6, align 8, !tbaa !19
  %7 = load ptr, ptr %4, align 8, !tbaa !71
  %8 = load ptr, ptr %5, align 8, !tbaa !77
  %9 = load i64, ptr %6, align 8, !tbaa !19
  call void @_ZNSt15__new_allocatorIiE10deallocateEPim(ptr noundef nonnull align 1 dereferenceable(1) %7, ptr noundef %8, i64 noundef %9)
  ret void
}

; Function Attrs: mustprogress nounwind uwtable
define linkonce_odr void @_ZNSt12_Destroy_auxILb1EE9__destroyIPiEEvT_S3_(ptr noundef %0, ptr noundef %1) #1 comdat align 2 {
  %3 = alloca ptr, align 8
  %4 = alloca ptr, align 8
  store ptr %0, ptr %3, align 8, !tbaa !77
  store ptr %1, ptr %4, align 8, !tbaa !77
  ret void
}

; Function Attrs: mustprogress nounwind uwtable
define linkonce_odr void @_ZNSt15__new_allocatorIiED2Ev(ptr noundef nonnull align 1 dereferenceable(1) %0) unnamed_addr #1 comdat align 2 {
  %2 = alloca ptr, align 8
  store ptr %0, ptr %2, align 8, !tbaa !75
  ret void
}

; Function Attrs: mustprogress uwtable
define linkonce_odr void @_ZNSt12_Vector_baseIiSaIiEE13_M_deallocateEPim(ptr noundef nonnull align 8 dereferenceable(24) %0, ptr noundef %1, i64 noundef %2) #0 comdat align 2 {
  %4 = alloca ptr, align 8
  %5 = alloca ptr, align 8
  %6 = alloca i64, align 8
  store ptr %0, ptr %4, align 8, !tbaa !73
  store ptr %1, ptr %5, align 8, !tbaa !77
  store i64 %2, ptr %6, align 8, !tbaa !19
  %7 = load ptr, ptr %4, align 8
  %8 = load ptr, ptr %5, align 8, !tbaa !77
  %9 = icmp ne ptr %8, null
  br i1 %9, label %10, label %14

10:                                               ; preds = %3
  %11 = getelementptr inbounds nuw %"struct.std::_Vector_base.4", ptr %7, i32 0, i32 0
  %12 = load ptr, ptr %5, align 8, !tbaa !77
  %13 = load i64, ptr %6, align 8, !tbaa !19
  call void @_ZNSt16allocator_traitsISaIiEE10deallocateERS0_Pim(ptr noundef nonnull align 1 dereferenceable(1) %11, ptr noundef %12, i64 noundef %13)
  br label %14

14:                                               ; preds = %10, %3
  ret void
}

; Function Attrs: inlinehint mustprogress uwtable
define linkonce_odr void @_ZSt8_DestroyIPiEvT_S1_(ptr noundef %0, ptr noundef %1) #5 comdat {
  %3 = alloca ptr, align 8
  %4 = alloca ptr, align 8
  store ptr %0, ptr %3, align 8, !tbaa !77
  store ptr %1, ptr %4, align 8, !tbaa !77
  %5 = load ptr, ptr %3, align 8, !tbaa !77
  %6 = load ptr, ptr %4, align 8, !tbaa !77
  call void @_ZNSt12_Destroy_auxILb1EE9__destroyIPiEEvT_S3_(ptr noundef %5, ptr noundef %6)
  ret void
}

; Function Attrs: noinline noreturn nounwind uwtable
define linkonce_odr hidden void @__clang_call_terminate(ptr noundef %0) #9 comdat {
  %2 = call ptr @__cxa_begin_catch(ptr %0) #19
  call void @_ZSt9terminatev() #20
  unreachable
}

; Function Attrs: mustprogress nounwind uwtable
define linkonce_odr void @_ZNSt12_Vector_baseIiSaIiEED2Ev(ptr noundef nonnull align 8 dereferenceable(24) %0) unnamed_addr #1 comdat align 2 personality ptr @__gxx_personality_v0 {
  %2 = alloca ptr, align 8
  store ptr %0, ptr %2, align 8, !tbaa !73
  %3 = load ptr, ptr %2, align 8
  %4 = getelementptr inbounds nuw %"struct.std::_Vector_base.4", ptr %3, i32 0, i32 0
  %5 = getelementptr inbounds nuw %"struct.std::_Vector_base<int, std::allocator<int>>::_Vector_impl_data", ptr %4, i32 0, i32 0
  %6 = load ptr, ptr %5, align 8, !tbaa !46
  %7 = getelementptr inbounds nuw %"struct.std::_Vector_base.4", ptr %3, i32 0, i32 0
  %8 = getelementptr inbounds nuw %"struct.std::_Vector_base<int, std::allocator<int>>::_Vector_impl_data", ptr %7, i32 0, i32 2
  %9 = load ptr, ptr %8, align 8, !tbaa !79
  %10 = getelementptr inbounds nuw %"struct.std::_Vector_base.4", ptr %3, i32 0, i32 0
  %11 = getelementptr inbounds nuw %"struct.std::_Vector_base<int, std::allocator<int>>::_Vector_impl_data", ptr %10, i32 0, i32 0
  %12 = load ptr, ptr %11, align 8, !tbaa !46
  %13 = ptrtoint ptr %9 to i64
  %14 = ptrtoint ptr %12 to i64
  %15 = sub i64 %13, %14
  %16 = sdiv exact i64 %15, 4
  invoke void @_ZNSt12_Vector_baseIiSaIiEE13_M_deallocateEPim(ptr noundef nonnull align 8 dereferenceable(24) %3, ptr noundef %6, i64 noundef %16)
          to label %17 unwind label %19

17:                                               ; preds = %1
  %18 = getelementptr inbounds nuw %"struct.std::_Vector_base.4", ptr %3, i32 0, i32 0
  call void @_ZNSt15__new_allocatorIiED2Ev(ptr noundef nonnull align 8 dereferenceable(24) %18) #19
  ret void

19:                                               ; preds = %1
  %20 = landingpad { ptr, i32 }
          catch ptr null
  %21 = extractvalue { ptr, i32 } %20, 0
  call void @__clang_call_terminate(ptr %21) #20
  unreachable
}

; Function Attrs: inlinehint mustprogress uwtable
define linkonce_odr void @_ZSt8_DestroyIPiiEvT_S1_RSaIT0_E(ptr noundef %0, ptr noundef %1, ptr noundef nonnull align 1 dereferenceable(1) %2) #5 comdat {
  %4 = alloca ptr, align 8
  %5 = alloca ptr, align 8
  %6 = alloca ptr, align 8
  store ptr %0, ptr %4, align 8, !tbaa !77
  store ptr %1, ptr %5, align 8, !tbaa !77
  store ptr %2, ptr %6, align 8, !tbaa !71
  %7 = load ptr, ptr %4, align 8, !tbaa !77
  %8 = load ptr, ptr %5, align 8, !tbaa !77
  call void @_ZSt8_DestroyIPiEvT_S1_(ptr noundef %7, ptr noundef %8)
  ret void
}

; Function Attrs: mustprogress nounwind uwtable
define linkonce_odr noundef nonnull align 1 dereferenceable(1) ptr @_ZNSt12_Vector_baseIiSaIiEE19_M_get_Tp_allocatorEv(ptr noundef nonnull align 8 dereferenceable(24) %0) #1 comdat align 2 {
  %2 = alloca ptr, align 8
  store ptr %0, ptr %2, align 8, !tbaa !73
  %3 = load ptr, ptr %2, align 8
  %4 = getelementptr inbounds nuw %"struct.std::_Vector_base.4", ptr %3, i32 0, i32 0
  ret ptr %4
}

; Function Attrs: mustprogress nounwind uwtable
define linkonce_odr void @_ZNSt6vectorIiSaIiEED2Ev(ptr noundef nonnull align 8 dereferenceable(24) %0) unnamed_addr #1 comdat align 2 personality ptr @__gxx_personality_v0 {
  %2 = alloca ptr, align 8
  store ptr %0, ptr %2, align 8, !tbaa !44
  %3 = load ptr, ptr %2, align 8
  %4 = getelementptr inbounds nuw %"struct.std::_Vector_base.4", ptr %3, i32 0, i32 0
  %5 = getelementptr inbounds nuw %"struct.std::_Vector_base<int, std::allocator<int>>::_Vector_impl_data", ptr %4, i32 0, i32 0
  %6 = load ptr, ptr %5, align 8, !tbaa !46
  %7 = getelementptr inbounds nuw %"struct.std::_Vector_base.4", ptr %3, i32 0, i32 0
  %8 = getelementptr inbounds nuw %"struct.std::_Vector_base<int, std::allocator<int>>::_Vector_impl_data", ptr %7, i32 0, i32 1
  %9 = load ptr, ptr %8, align 8, !tbaa !49
  %10 = call noundef nonnull align 1 dereferenceable(1) ptr @_ZNSt12_Vector_baseIiSaIiEE19_M_get_Tp_allocatorEv(ptr noundef nonnull align 8 dereferenceable(24) %3) #19
  invoke void @_ZSt8_DestroyIPiiEvT_S1_RSaIT0_E(ptr noundef %6, ptr noundef %9, ptr noundef nonnull align 1 dereferenceable(1) %10)
          to label %11 unwind label %12

11:                                               ; preds = %1
  call void @_ZNSt12_Vector_baseIiSaIiEED2Ev(ptr noundef nonnull align 8 dereferenceable(24) %3) #19
  ret void

12:                                               ; preds = %1
  %13 = landingpad { ptr, i32 }
          catch ptr null
  %14 = extractvalue { ptr, i32 } %13, 0
  call void @__clang_call_terminate(ptr %14) #20
  unreachable
}

; Function Attrs: inlinehint mustprogress nounwind uwtable
define linkonce_odr void @_ZN3gmx17RangePartitioningD2Ev(ptr noundef nonnull align 8 dereferenceable(24) %0) unnamed_addr #4 comdat align 2 {
  %2 = alloca ptr, align 8
  store ptr %0, ptr %2, align 8, !tbaa !458
  %3 = load ptr, ptr %2, align 8
  %4 = getelementptr inbounds nuw %"class.gmx::RangePartitioning", ptr %3, i32 0, i32 0
  call void @_ZNSt6vectorIiSaIiEED2Ev(ptr noundef nonnull align 8 dereferenceable(24) %4) #19
  ret void
}

; Function Attrs: mustprogress uwtable
define noundef zeroext i1 @_Z32gmx_ana_index_has_complete_elemsP15gmx_ana_index_t9e_index_tPK10gmx_mtop_t(ptr noundef %0, i32 noundef %1, ptr noundef %2) #0 personality ptr @__gxx_personality_v0 {
  %4 = alloca i1, align 1
  %5 = alloca ptr, align 8
  %6 = alloca i32, align 4
  %7 = alloca ptr, align 8
  %8 = alloca i32, align 4
  %9 = alloca i32, align 4
  %10 = alloca i32, align 4
  %11 = alloca i32, align 4
  %12 = alloca i32, align 4
  %13 = alloca i32, align 4
  %14 = alloca %"class.gmx::RangePartitioning", align 8
  %15 = alloca ptr, align 8
  %16 = alloca i32, align 4
  store ptr %0, ptr %5, align 8, !tbaa !232
  store i32 %1, ptr %6, align 4, !tbaa !347
  store ptr %2, ptr %7, align 8, !tbaa !228
  %17 = load ptr, ptr %5, align 8, !tbaa !232
  %18 = getelementptr inbounds nuw %struct.gmx_ana_index_t, ptr %17, i32 0, i32 0
  %19 = load i32, ptr %18, align 8, !tbaa !234
  %20 = icmp eq i32 %19, 0
  br i1 %20, label %21, label %22

21:                                               ; preds = %3
  store i1 true, ptr %4, align 1
  br label %97

22:                                               ; preds = %3
  %23 = load i32, ptr %6, align 4, !tbaa !347
  switch i32 %23, label %96 [
    i32 0, label %24
    i32 4, label %24
    i32 1, label %25
    i32 2, label %26
    i32 3, label %87
  ]

24:                                               ; preds = %22, %22
  store i1 false, ptr %4, align 1
  br label %97

25:                                               ; preds = %22
  store i1 true, ptr %4, align 1
  br label %97

26:                                               ; preds = %22
  call void @llvm.lifetime.start.p0(i64 4, ptr %8) #19
  store i32 0, ptr %8, align 4, !tbaa !114
  call void @llvm.lifetime.start.p0(i64 4, ptr %9) #19
  store i32 -1, ptr %9, align 4, !tbaa !114
  call void @llvm.lifetime.start.p0(i64 4, ptr %10) #19
  store i32 0, ptr %10, align 4, !tbaa !114
  br label %27

27:                                               ; preds = %63, %26
  %28 = load i32, ptr %10, align 4, !tbaa !114
  %29 = load ptr, ptr %5, align 8, !tbaa !232
  %30 = getelementptr inbounds nuw %struct.gmx_ana_index_t, ptr %29, i32 0, i32 0
  %31 = load i32, ptr %30, align 8, !tbaa !234
  %32 = icmp slt i32 %28, %31
  br i1 %32, label %34, label %33

33:                                               ; preds = %27
  store i32 3, ptr %11, align 4
  br label %66

34:                                               ; preds = %27
  call void @llvm.lifetime.start.p0(i64 4, ptr %12) #19
  %35 = load ptr, ptr %5, align 8, !tbaa !232
  %36 = getelementptr inbounds nuw %struct.gmx_ana_index_t, ptr %35, i32 0, i32 1
  %37 = load ptr, ptr %36, align 8, !tbaa !236
  %38 = load i32, ptr %10, align 4, !tbaa !114
  %39 = sext i32 %38 to i64
  %40 = getelementptr inbounds i32, ptr %37, i64 %39
  %41 = load i32, ptr %40, align 4, !tbaa !114
  store i32 %41, ptr %12, align 4, !tbaa !114
  %42 = load i32, ptr %12, align 4, !tbaa !114
  %43 = load i32, ptr %9, align 4, !tbaa !114
  %44 = add nsw i32 %43, 1
  %45 = icmp ne i32 %42, %44
  br i1 %45, label %46, label %58

46:                                               ; preds = %34
  %47 = load ptr, ptr %7, align 8, !tbaa !228
  %48 = load i32, ptr %9, align 4, !tbaa !114
  %49 = call noundef zeroext i1 @_ZL22is_at_residue_boundaryRK10gmx_mtop_tiPi(ptr noundef nonnull align 8 dereferenceable(768) %47, i32 noundef %48, ptr noundef %8)
  br i1 %49, label %51, label %50

50:                                               ; preds = %46
  store i1 false, ptr %4, align 1
  store i32 1, ptr %11, align 4
  br label %60

51:                                               ; preds = %46
  %52 = load ptr, ptr %7, align 8, !tbaa !228
  %53 = load i32, ptr %12, align 4, !tbaa !114
  %54 = sub nsw i32 %53, 1
  %55 = call noundef zeroext i1 @_ZL22is_at_residue_boundaryRK10gmx_mtop_tiPi(ptr noundef nonnull align 8 dereferenceable(768) %52, i32 noundef %54, ptr noundef %8)
  br i1 %55, label %57, label %56

56:                                               ; preds = %51
  store i1 false, ptr %4, align 1
  store i32 1, ptr %11, align 4
  br label %60

57:                                               ; preds = %51
  br label %58

58:                                               ; preds = %57, %34
  %59 = load i32, ptr %12, align 4, !tbaa !114
  store i32 %59, ptr %9, align 4, !tbaa !114
  store i32 0, ptr %11, align 4
  br label %60

60:                                               ; preds = %58, %56, %50
  call void @llvm.lifetime.end.p0(i64 4, ptr %12) #19
  %61 = load i32, ptr %11, align 4
  switch i32 %61, label %66 [
    i32 0, label %62
  ]

62:                                               ; preds = %60
  br label %63

63:                                               ; preds = %62
  %64 = load i32, ptr %10, align 4, !tbaa !114
  %65 = add nsw i32 %64, 1
  store i32 %65, ptr %10, align 4, !tbaa !114
  br label %27, !llvm.loop !475

66:                                               ; preds = %60, %33
  call void @llvm.lifetime.end.p0(i64 4, ptr %10) #19
  %67 = load i32, ptr %11, align 4
  switch i32 %67, label %85 [
    i32 3, label %68
  ]

68:                                               ; preds = %66
  call void @llvm.lifetime.start.p0(i64 4, ptr %13) #19
  %69 = load ptr, ptr %5, align 8, !tbaa !232
  %70 = getelementptr inbounds nuw %struct.gmx_ana_index_t, ptr %69, i32 0, i32 1
  %71 = load ptr, ptr %70, align 8, !tbaa !236
  %72 = load ptr, ptr %5, align 8, !tbaa !232
  %73 = getelementptr inbounds nuw %struct.gmx_ana_index_t, ptr %72, i32 0, i32 0
  %74 = load i32, ptr %73, align 8, !tbaa !234
  %75 = sub nsw i32 %74, 1
  %76 = sext i32 %75 to i64
  %77 = getelementptr inbounds i32, ptr %71, i64 %76
  %78 = load i32, ptr %77, align 4, !tbaa !114
  store i32 %78, ptr %13, align 4, !tbaa !114
  %79 = load ptr, ptr %7, align 8, !tbaa !228
  %80 = load i32, ptr %13, align 4, !tbaa !114
  %81 = call noundef zeroext i1 @_ZL22is_at_residue_boundaryRK10gmx_mtop_tiPi(ptr noundef nonnull align 8 dereferenceable(768) %79, i32 noundef %80, ptr noundef %8)
  br i1 %81, label %83, label %82

82:                                               ; preds = %68
  store i1 false, ptr %4, align 1
  store i32 1, ptr %11, align 4
  br label %84

83:                                               ; preds = %68
  store i32 2, ptr %11, align 4
  br label %84

84:                                               ; preds = %83, %82
  call void @llvm.lifetime.end.p0(i64 4, ptr %13) #19
  br label %85

85:                                               ; preds = %84, %66
  call void @llvm.lifetime.end.p0(i64 4, ptr %9) #19
  call void @llvm.lifetime.end.p0(i64 4, ptr %8) #19
  %86 = load i32, ptr %11, align 4
  switch i32 %86, label %104 [
    i32 1, label %97
    i32 2, label %96
  ]

87:                                               ; preds = %22
  call void @llvm.lifetime.start.p0(i64 24, ptr %14) #19
  %88 = load ptr, ptr %7, align 8, !tbaa !228
  call void @_Z18gmx_mtop_moleculesRK10gmx_mtop_t(ptr dead_on_unwind writable sret(%"class.gmx::RangePartitioning") align 8 %14, ptr noundef nonnull align 8 dereferenceable(768) %88)
  %89 = load ptr, ptr %5, align 8, !tbaa !232
  %90 = invoke noundef zeroext i1 @_Z29gmx_ana_index_has_full_blocksPK15gmx_ana_index_tPKN3gmx17RangePartitioningE(ptr noundef %89, ptr noundef %14)
          to label %91 unwind label %92

91:                                               ; preds = %87
  store i1 %90, ptr %4, align 1
  store i32 1, ptr %11, align 4
  call void @_ZN3gmx17RangePartitioningD2Ev(ptr noundef nonnull align 8 dereferenceable(24) %14) #19
  call void @llvm.lifetime.end.p0(i64 24, ptr %14) #19
  br label %97

92:                                               ; preds = %87
  %93 = landingpad { ptr, i32 }
          cleanup
  %94 = extractvalue { ptr, i32 } %93, 0
  store ptr %94, ptr %15, align 8
  %95 = extractvalue { ptr, i32 } %93, 1
  store i32 %95, ptr %16, align 4
  call void @_ZN3gmx17RangePartitioningD2Ev(ptr noundef nonnull align 8 dereferenceable(24) %14) #19
  call void @llvm.lifetime.end.p0(i64 24, ptr %14) #19
  br label %99

96:                                               ; preds = %22, %85
  store i1 true, ptr %4, align 1
  br label %97

97:                                               ; preds = %96, %91, %85, %25, %24, %21
  %98 = load i1, ptr %4, align 1
  ret i1 %98

99:                                               ; preds = %92
  %100 = load ptr, ptr %15, align 8
  %101 = load i32, ptr %16, align 4
  %102 = insertvalue { ptr, i32 } poison, ptr %100, 0
  %103 = insertvalue { ptr, i32 } %102, i32 %101, 1
  resume { ptr, i32 } %103

104:                                              ; preds = %85
  unreachable
}