; Function Attrs: mustprogress uwtable
define noundef zeroext i1 @_Z32gmx_ana_index_has_complete_elemsP15gmx_ana_index_t9e_index_tPK10gmx_mtop_t(ptr noundef readonly captures(none) %0, i32 noundef %1, ptr noundef %2) local_unnamed_addr #0 personality ptr @__gxx_personality_v0 {
  %4 = alloca i32, align 4
  %5 = alloca %"class.gmx::RangePartitioning", align 8
  %6 = load i32, ptr %0, align 8, !tbaa !73
  %7 = icmp eq i32 %6, 0
  br i1 %7, label %48, label %8

8:                                                ; preds = %3
  switch i32 %1, label %47 [
    i32 0, label %48
    i32 4, label %48
    i32 1, label %9
    i32 2, label %10
    i32 3, label %28
  ]

9:                                                ; preds = %8
  br label %48

10:                                               ; preds = %8
  call void @llvm.lifetime.start.p0(i64 4, ptr nonnull %4) #28
  store i32 0, ptr %4, align 4, !tbaa !36
  %.not3445 = icmp sgt i32 %6, 0
  %11 = getelementptr inbounds nuw i8, ptr %0, i64 8
  %12 = load ptr, ptr %11, align 8, !tbaa !108
  br i1 %.not3445, label %.lr.ph, label %._crit_edge

.lr.ph:                                           ; preds = %10
  %wide.trip.count = zext nneg i32 %6 to i64
  br label %13

13:                                               ; preds = %.lr.ph, %22
  %indvars.iv = phi i64 [ 0, %.lr.ph ], [ %indvars.iv.next, %22 ]
  %.02647 = phi i32 [ -1, %.lr.ph ], [ %15, %22 ]
  %14 = getelementptr inbounds nuw i32, ptr %12, i64 %indvars.iv
  %15 = load i32, ptr %14, align 4, !tbaa !36
  %16 = add nsw i32 %.02647, 1
  %.not = icmp eq i32 %15, %16
  br i1 %.not, label %22, label %17

17:                                               ; preds = %13
  %18 = call fastcc noundef zeroext i1 @_ZL22is_at_residue_boundaryRK10gmx_mtop_tiPi(ptr noundef nonnull align 8 dereferenceable(768) %2, i32 noundef %.02647, ptr noundef %4)
  br i1 %18, label %19, label %.thread41

19:                                               ; preds = %17
  %20 = add nsw i32 %15, -1
  %21 = call fastcc noundef zeroext i1 @_ZL22is_at_residue_boundaryRK10gmx_mtop_tiPi(ptr noundef nonnull align 8 dereferenceable(768) %2, i32 noundef %20, ptr noundef %4)
  br i1 %21, label %22, label %.thread41

.thread41:                                        ; preds = %17, %19
  call void @llvm.lifetime.end.p0(i64 4, ptr nonnull %4) #28
  br label %48

22:                                               ; preds = %19, %13
  %indvars.iv.next = add nuw nsw i64 %indvars.iv, 1
  %exitcond.not = icmp eq i64 %indvars.iv.next, %wide.trip.count
  br i1 %exitcond.not, label %._crit_edge, label %13, !llvm.loop !247

._crit_edge:                                      ; preds = %22, %10
  %23 = sext i32 %6 to i64
  %24 = getelementptr i32, ptr %12, i64 %23
  %25 = getelementptr i8, ptr %24, i64 -4
  %26 = load i32, ptr %25, align 4, !tbaa !36
  %27 = call fastcc noundef zeroext i1 @_ZL22is_at_residue_boundaryRK10gmx_mtop_tiPi(ptr noundef nonnull align 8 dereferenceable(768) %2, i32 noundef %26, ptr noundef %4)
  call void @llvm.lifetime.end.p0(i64 4, ptr nonnull %4) #28
  br i1 %27, label %47, label %48

28:                                               ; preds = %8
  call void @llvm.lifetime.start.p0(i64 24, ptr nonnull %5) #28
  call void @_Z18gmx_mtop_moleculesRK10gmx_mtop_t(ptr dead_on_unwind nonnull writable sret(%"class.gmx::RangePartitioning") align 8 %5, ptr noundef nonnull align 8 dereferenceable(768) %2)
  %29 = invoke noundef zeroext i1 @_Z29gmx_ana_index_has_full_blocksPK15gmx_ana_index_tPKN3gmx17RangePartitioningE(ptr noundef nonnull %0, ptr noundef nonnull %5)
          to label %30 unwind label %38

30:                                               ; preds = %28
  %31 = load ptr, ptr %5, align 8, !tbaa !14
  %.not.i.i.i.i = icmp eq ptr %31, null
  br i1 %.not.i.i.i.i, label %_ZN3gmx17RangePartitioningD2Ev.exit, label %32

32:                                               ; preds = %30
  %33 = getelementptr inbounds nuw i8, ptr %5, i64 16
  %34 = load ptr, ptr %33, align 8, !tbaa !17
  %35 = ptrtoint ptr %34 to i64
  %36 = ptrtoint ptr %31 to i64
  %37 = sub i64 %35, %36
  call void @_ZdlPvm(ptr noundef nonnull %31, i64 noundef %37) #25
  br label %_ZN3gmx17RangePartitioningD2Ev.exit

_ZN3gmx17RangePartitioningD2Ev.exit:              ; preds = %30, %32
  call void @llvm.lifetime.end.p0(i64 24, ptr nonnull %5) #28
  br label %48

38:                                               ; preds = %28
  %39 = landingpad { ptr, i32 }
          cleanup
  %40 = load ptr, ptr %5, align 8, !tbaa !14
  %.not.i.i.i.i35 = icmp eq ptr %40, null
  br i1 %.not.i.i.i.i35, label %_ZN3gmx17RangePartitioningD2Ev.exit36, label %41

41:                                               ; preds = %38
  %42 = getelementptr inbounds nuw i8, ptr %5, i64 16
  %43 = load ptr, ptr %42, align 8, !tbaa !17
  %44 = ptrtoint ptr %43 to i64
  %45 = ptrtoint ptr %40 to i64
  %46 = sub i64 %44, %45
  call void @_ZdlPvm(ptr noundef nonnull %40, i64 noundef %46) #25
  br label %_ZN3gmx17RangePartitioningD2Ev.exit36

_ZN3gmx17RangePartitioningD2Ev.exit36:            ; preds = %38, %41
  call void @llvm.lifetime.end.p0(i64 24, ptr nonnull %5) #28
  resume { ptr, i32 } %39

47:                                               ; preds = %._crit_edge, %8
  br label %48

48:                                               ; preds = %.thread41, %._crit_edge, %8, %8, %3, %47, %_ZN3gmx17RangePartitioningD2Ev.exit, %9
  %.0 = phi i1 [ true, %47 ], [ %29, %_ZN3gmx17RangePartitioningD2Ev.exit ], [ false, %._crit_edge ], [ true, %9 ], [ true, %3 ], [ false, %8 ], [ false, %8 ], [ false, %.thread41 ]
  ret i1 %.0
}